((lp0
(dp1
S'alpha'
p2
F0.1
sS'size'
p3
I512
sa(dp4
g2
F0.1
sg3
I256
sa(dp5
g2
F0.05
sg3
I512
sa(dp6
g2
F0.05
sg3
I256
sa(dp7
g2
F0.01
sg3
I512
sa(dp8
g2
F0.01
sg3
I256
sacnumpy.core.multiarray
_reconstruct
p9
(cnumpy
ndarray
p10
(I0
tp11
S'b'
p12
tp13
Rp14
(I1
(I6
tp15
cnumpy
dtype
p16
(S'f8'
p17
I0
I1
tp18
Rp19
(I3
S'<'
p20
NNNI-1
I-1
I0
tp21
bI00
S"G\x160\xcaP'\x97@\xbb\xe1\x7f\xb4\x90z\x96@\xc5\xe1\xe6rn\xd6\x96@\xe5\xa0\x96\x93FA\x96@M\x15WN\xd3\xad\x96@\xbd:\xc1\x94\xeeO\x96@"
p22
tp23
btp24
.