((lp0
F0.2
aF0.4
aF0.6
aF0.8
aF1.0
a(lp1
cnumpy.core.multiarray
scalar
p2
(cnumpy
dtype
p3
(S'f8'
p4
I0
I1
tp5
Rp6
(I3
S'<'
p7
NNNI-1
I-1
I0
tp8
bS'\xbb\xae\xcf<\xf5\x1d\xe8?'
p9
tp10
Rp11
ag2
(g6
S'\xb2\xdb:\xbcn(\xe9?'
p12
tp13
Rp14
ag2
(g6
S'{\x95\tD\xb5\xa0\xe9?'
p15
tp16
Rp17
ag2
(g6
S'#\x18\xec\tD\xea\xe9?'
p18
tp19
Rp20
ag2
(g6
S'\xf2+lWE#\xea?'
p21
tp22
Rp23
atp24
.